; Function Attrs: mustprogress uwtable
define void @ulocbld_setUnicodeLocaleKeyword_77(ptr noundef %0, ptr noundef %1, i32 noundef %2, ptr noundef %3, i32 noundef %4) local_unnamed_addr #1 {
  %6 = alloca %"class.icu_77::StringPiece", align 8
  %7 = alloca %"class.icu_77::StringPiece", align 8
  %8 = icmp eq ptr %0, null
  br i1 %8, label %26, label %9

9:                                                ; preds = %5
  %10 = icmp slt i32 %2, 0
  br i1 %10, label %11, label %12

11:                                               ; preds = %9
  call void @_ZN6icu_7711StringPieceC1EPKc(ptr noundef nonnull align 8 dereferenceable(12) %6, ptr noundef %1)
  br label %14

12:                                               ; preds = %9
  store ptr %1, ptr %6, align 8, !tbaa !18
  %13 = getelementptr inbounds nuw i8, ptr %6, i64 8
  store i32 %2, ptr %13, align 8, !tbaa !20
  br label %14

14:                                               ; preds = %12, %11
  %15 = icmp slt i32 %4, 0
  br i1 %15, label %16, label %17

16:                                               ; preds = %14
  call void @_ZN6icu_7711StringPieceC1EPKc(ptr noundef nonnull align 8 dereferenceable(12) %7, ptr noundef %3)
  %.pre = load ptr, ptr %7, align 8
  %.phi.trans.insert = getelementptr inbounds nuw i8, ptr %7, i64 8
  %.pre11 = load i32, ptr %.phi.trans.insert, align 8
  br label %19

17:                                               ; preds = %14
  store ptr %3, ptr %7, align 8, !tbaa !18
  %18 = getelementptr inbounds nuw i8, ptr %7, i64 8
  store i32 %4, ptr %18, align 8, !tbaa !20
  br label %19

19:                                               ; preds = %17, %16
  %20 = phi i32 [ %4, %17 ], [ %.pre11, %16 ]
  %21 = phi ptr [ %3, %17 ], [ %.pre, %16 ]
  %22 = load ptr, ptr %6, align 8
  %23 = getelementptr inbounds nuw i8, ptr %6, i64 8
  %24 = load i32, ptr %23, align 8
  %25 = call noundef nonnull align 8 dereferenceable(48) ptr @_ZN6icu_7713LocaleBuilder23setUnicodeLocaleKeywordENS_11StringPieceES1_(ptr noundef nonnull align 8 dereferenceable(48) %0, ptr %22, i32 %24, ptr %21, i32 %20)
  br label %26

26:                                               ; preds = %5, %19
  ret void
}